; Function Attrs: mustprogress uwtable
define hidden void @_ZN14context_params8set_boolERbPKcS2_(ptr nocapture nonnull readnone align 8 %this, ptr nocapture noundef nonnull writeonly align 1 dereferenceable(1) %opt, ptr noundef %param, ptr noundef %value) local_unnamed_addr #3 align 2 personality ptr @__gxx_personality_v0 {
entry:
  %strm = alloca %"class.std::__cxx11::basic_stringstream", align 8
  %ref.tmp = alloca %"class.std::__cxx11::basic_string", align 8
  %call = tail call i32 @strcmp(ptr noundef nonnull dereferenceable(1) %value, ptr noundef nonnull dereferenceable(5) @.str.1) #12
  %cmp = icmp eq i32 %call, 0
  br i1 %cmp, label %if.end20, label %if.else

if.else:                                          ; preds = %entry
  %call2 = tail call i32 @strcmp(ptr noundef nonnull dereferenceable(1) %value, ptr noundef nonnull dereferenceable(6) @.str.2) #12
  %cmp3 = icmp eq i32 %call2, 0
  br i1 %cmp3, label %if.end20, label %if.else5

if.else5:                                         ; preds = %if.else
  call void @_ZNSt7__cxx1118basic_stringstreamIcSt11char_traitsIcESaIcEEC1Ev(ptr noundef nonnull align 8 dereferenceable(128) %strm)
  %add.ptr = getelementptr inbounds i8, ptr %strm, i64 16
  %call6 = invoke noundef nonnull align 8 dereferenceable(8) ptr @_ZStlsISt11char_traitsIcEERSt13basic_ostreamIcT_ES5_PKc(ptr noundef nonnull align 8 dereferenceable(8) %add.ptr, ptr noundef nonnull @.str.3)
          to label %invoke.cont unwind label %lpad

invoke.cont:                                      ; preds = %if.else5
  %call8 = invoke noundef nonnull align 8 dereferenceable(8) ptr @_ZStlsISt11char_traitsIcEERSt13basic_ostreamIcT_ES5_PKc(ptr noundef nonnull align 8 dereferenceable(8) %call6, ptr noundef %value)
          to label %invoke.cont7 unwind label %lpad

invoke.cont7:                                     ; preds = %invoke.cont
  %call10 = invoke noundef nonnull align 8 dereferenceable(8) ptr @_ZStlsISt11char_traitsIcEERSt13basic_ostreamIcT_ES5_PKc(ptr noundef nonnull align 8 dereferenceable(8) %call8, ptr noundef nonnull @.str.4)
          to label %invoke.cont9 unwind label %lpad

invoke.cont9:                                     ; preds = %invoke.cont7
  %call12 = invoke noundef nonnull align 8 dereferenceable(8) ptr @_ZStlsISt11char_traitsIcEERSt13basic_ostreamIcT_ES5_PKc(ptr noundef nonnull align 8 dereferenceable(8) %call10, ptr noundef %param)
          to label %invoke.cont11 unwind label %lpad

invoke.cont11:                                    ; preds = %invoke.cont9
  %call14 = invoke noundef nonnull align 8 dereferenceable(8) ptr @_ZStlsISt11char_traitsIcEERSt13basic_ostreamIcT_ES5_PKc(ptr noundef nonnull align 8 dereferenceable(8) %call12, ptr noundef nonnull @.str.5)
          to label %invoke.cont13 unwind label %lpad

invoke.cont13:                                    ; preds = %invoke.cont11
  %exception = call ptr @__cxa_allocate_exception(i64 40) #11
  invoke void @_ZNKSt7__cxx1118basic_stringstreamIcSt11char_traitsIcESaIcEE3strEv(ptr nonnull sret(%"class.std::__cxx11::basic_string") align 8 %ref.tmp, ptr noundef nonnull align 8 dereferenceable(128) %strm)
          to label %invoke.cont16 unwind label %cleanup.action

invoke.cont16:                                    ; preds = %invoke.cont13
  store ptr getelementptr inbounds ({ [6 x ptr] }, ptr @_ZTV17default_exception, i64 0, i32 0, i64 2), ptr %exception, align 8
  %m_msg.i = getelementptr inbounds i8, ptr %exception, i64 8
  call void @_ZNSt7__cxx1112basic_stringIcSt11char_traitsIcESaIcEEC1EOS4_(ptr noundef nonnull align 8 dereferenceable(32) %m_msg.i, ptr noundef nonnull align 8 dereferenceable(32) %ref.tmp) #11
  invoke void @__cxa_throw(ptr nonnull %exception, ptr nonnull @_ZTI17default_exception, ptr nonnull @_ZN17default_exceptionD2Ev) #13
          to label %unreachable unwind label %ehcleanup

lpad:                                             ; preds = %invoke.cont11, %invoke.cont9, %invoke.cont7, %invoke.cont, %if.else5
  %0 = landingpad { ptr, i32 }
          cleanup
  br label %ehcleanup19

ehcleanup:                                        ; preds = %invoke.cont16
  %1 = landingpad { ptr, i32 }
          cleanup
  call void @_ZNSt7__cxx1112basic_stringIcSt11char_traitsIcESaIcEED1Ev(ptr noundef nonnull align 8 dereferenceable(32) %ref.tmp) #11
  br label %ehcleanup19

cleanup.action:                                   ; preds = %invoke.cont13
  %2 = landingpad { ptr, i32 }
          cleanup
  call void @__cxa_free_exception(ptr %exception) #11
  br label %ehcleanup19

ehcleanup19:                                      ; preds = %ehcleanup, %cleanup.action, %lpad
  %.pn.pn = phi { ptr, i32 } [ %2, %cleanup.action ], [ %1, %ehcleanup ], [ %0, %lpad ]
  call void @_ZNSt7__cxx1118basic_stringstreamIcSt11char_traitsIcESaIcEED1Ev(ptr noundef nonnull align 8 dereferenceable(128) %strm) #11
  resume { ptr, i32 } %.pn.pn

if.end20:                                         ; preds = %if.else, %entry
  %storemerge = phi i8 [ 1, %entry ], [ 0, %if.else ]
  store i8 %storemerge, ptr %opt, align 1
  ret void

unreachable:                                      ; preds = %invoke.cont16
  unreachable
}